target datalayout = "e-m:e-p270:32:32-p271:32:32-p272:64:64-i64:64-i128:128-f80:128-n8:16:32:64-S128"
target triple = "x86_64-pc-linux-gnu"

%"struct.cv::ppf_match_3d::HSHTBL_i" = type { i64, ptr, ptr }

; Function Attrs: inlinehint mustprogress nounwind uwtable
define internal noundef i32 @_ZN2cv12ppf_match_3dL17next_power_of_twoEj(i32 noundef %0) #7 {
  %2 = alloca i32, align 4
  store i32 %0, ptr %2, align 4, !tbaa !3
  %3 = load i32, ptr %2, align 4, !tbaa !3
  %4 = add i32 %3, -1
  store i32 %4, ptr %2, align 4, !tbaa !3
  %5 = load i32, ptr %2, align 4, !tbaa !3
  %6 = lshr i32 %5, 1
  %7 = load i32, ptr %2, align 4, !tbaa !3
  %8 = or i32 %7, %6
  store i32 %8, ptr %2, align 4, !tbaa !3
  %9 = load i32, ptr %2, align 4, !tbaa !3
  %10 = lshr i32 %9, 2
  %11 = load i32, ptr %2, align 4, !tbaa !3
  %12 = or i32 %11, %10
  store i32 %12, ptr %2, align 4, !tbaa !3
  %13 = load i32, ptr %2, align 4, !tbaa !3
  %14 = lshr i32 %13, 4
  %15 = load i32, ptr %2, align 4, !tbaa !3
  %16 = or i32 %15, %14
  store i32 %16, ptr %2, align 4, !tbaa !3
  %17 = load i32, ptr %2, align 4, !tbaa !3
  %18 = lshr i32 %17, 8
  %19 = load i32, ptr %2, align 4, !tbaa !3
  %20 = or i32 %19, %18
  store i32 %20, ptr %2, align 4, !tbaa !3
  %21 = load i32, ptr %2, align 4, !tbaa !3
  %22 = lshr i32 %21, 16
  %23 = load i32, ptr %2, align 4, !tbaa !3
  %24 = or i32 %23, %22
  store i32 %24, ptr %2, align 4, !tbaa !3
  %25 = load i32, ptr %2, align 4, !tbaa !3
  %26 = add i32 %25, 1
  store i32 %26, ptr %2, align 4, !tbaa !3
  %27 = load i32, ptr %2, align 4, !tbaa !3
  ret i32 %27
}

; Function Attrs: mustprogress uwtable
define hidden noundef ptr @_ZN2cv12ppf_match_3d15hashtableCreateEmPFmjE(i64 noundef %0, ptr noundef %1) #5 {
  %3 = alloca ptr, align 8
  %4 = alloca i64, align 8
  %5 = alloca ptr, align 8
  %6 = alloca ptr, align 8
  %7 = alloca i32, align 4
  store i64 %0, ptr %4, align 8, !tbaa !7
  store ptr %1, ptr %5, align 8, !tbaa !9
  call void @llvm.lifetime.start.p0(i64 8, ptr %6) #3
  %8 = load i64, ptr %4, align 8, !tbaa !7
  %9 = icmp ult i64 %8, 16
  br i1 %9, label %10, label %11

10:                                               ; preds = %2
  store i64 16, ptr %4, align 8, !tbaa !7
  br label %16

11:                                               ; preds = %2
  %12 = load i64, ptr %4, align 8, !tbaa !7
  %13 = trunc i64 %12 to i32
  %14 = call noundef i32 @_ZN2cv12ppf_match_3dL17next_power_of_twoEj(i32 noundef %13)
  %15 = zext i32 %14 to i64
  store i64 %15, ptr %4, align 8, !tbaa !7
  br label %16

16:                                               ; preds = %11, %10
  %17 = call noalias ptr @malloc(i64 noundef 24) #12
  store ptr %17, ptr %6, align 8, !tbaa !11
  %18 = load ptr, ptr %6, align 8, !tbaa !11
  %19 = icmp ne ptr %18, null
  br i1 %19, label %21, label %20

20:                                               ; preds = %16
  store ptr null, ptr %3, align 8
  store i32 1, ptr %7, align 4
  br label %47

21:                                               ; preds = %16
  %22 = load i64, ptr %4, align 8, !tbaa !7
  %23 = call noalias ptr @calloc(i64 noundef %22, i64 noundef 8) #13
  %24 = load ptr, ptr %6, align 8, !tbaa !11
  %25 = getelementptr inbounds nuw %"struct.cv::ppf_match_3d::HSHTBL_i", ptr %24, i32 0, i32 1
  store ptr %23, ptr %25, align 8, !tbaa !13
  %26 = load ptr, ptr %6, align 8, !tbaa !11
  %27 = getelementptr inbounds nuw %"struct.cv::ppf_match_3d::HSHTBL_i", ptr %26, i32 0, i32 1
  %28 = load ptr, ptr %27, align 8, !tbaa !13
  %29 = icmp ne ptr %28, null
  br i1 %29, label %32, label %30

30:                                               ; preds = %21
  %31 = load ptr, ptr %6, align 8, !tbaa !11
  call void @free(ptr noundef %31) #3
  store ptr null, ptr %3, align 8
  store i32 1, ptr %7, align 4
  br label %47

32:                                               ; preds = %21
  %33 = load i64, ptr %4, align 8, !tbaa !7
  %34 = load ptr, ptr %6, align 8, !tbaa !11
  %35 = getelementptr inbounds nuw %"struct.cv::ppf_match_3d::HSHTBL_i", ptr %34, i32 0, i32 0
  store i64 %33, ptr %35, align 8, !tbaa !17
  %36 = load ptr, ptr %5, align 8, !tbaa !9
  %37 = icmp ne ptr %36, null
  br i1 %37, label %38, label %42

38:                                               ; preds = %32
  %39 = load ptr, ptr %5, align 8, !tbaa !9
  %40 = load ptr, ptr %6, align 8, !tbaa !11
  %41 = getelementptr inbounds nuw %"struct.cv::ppf_match_3d::HSHTBL_i", ptr %40, i32 0, i32 2
  store ptr %39, ptr %41, align 8, !tbaa !18
  br label %45

42:                                               ; preds = %32
  %43 = load ptr, ptr %6, align 8, !tbaa !11
  %44 = getelementptr inbounds nuw %"struct.cv::ppf_match_3d::HSHTBL_i", ptr %43, i32 0, i32 2
  store ptr @_ZN2cv12ppf_match_3d4hashEj, ptr %44, align 8, !tbaa !18
  br label %45

45:                                               ; preds = %42, %38
  %46 = load ptr, ptr %6, align 8, !tbaa !11
  store ptr %46, ptr %3, align 8
  store i32 1, ptr %7, align 4
  br label %47

47:                                               ; preds = %45, %30, %20
  call void @llvm.lifetime.end.p0(i64 8, ptr %6) #3
  %48 = load ptr, ptr %3, align 8
  ret ptr %48
}