; Function Attrs: mustprogress nounwind willreturn memory(readwrite, argmem: none) uwtable
define hidden noalias noundef ptr @_ZN2cv12ppf_match_3d15hashtableCreateEmPFmjE(i64 noundef %0, ptr noundef %1) local_unnamed_addr #4 {
  %3 = icmp ult i64 %0, 16
  br i1 %3, label %19, label %4

4:                                                ; preds = %2
  %5 = trunc i64 %0 to i32
  %6 = add i32 %5, -1
  %7 = lshr i32 %6, 1
  %8 = or i32 %7, %6
  %9 = lshr i32 %8, 2
  %10 = or i32 %9, %8
  %11 = lshr i32 %10, 4
  %12 = or i32 %11, %10
  %13 = lshr i32 %12, 8
  %14 = or i32 %13, %12
  %15 = lshr i32 %14, 16
  %16 = or i32 %15, %14
  %17 = add i32 %16, 1
  %18 = zext i32 %17 to i64
  br label %19

19:                                               ; preds = %2, %4
  %.014 = phi i64 [ %18, %4 ], [ 16, %2 ]
  %20 = tail call noalias dereferenceable_or_null(24) ptr @malloc(i64 noundef 24) #17
  %.not = icmp eq ptr %20, null
  br i1 %.not, label %29, label %21

21:                                               ; preds = %19
  %22 = tail call noalias ptr @calloc(i64 noundef %.014, i64 noundef 8) #18
  %23 = getelementptr inbounds nuw i8, ptr %20, i64 8
  store ptr %22, ptr %23, align 8, !tbaa !3
  %.not18 = icmp eq ptr %22, null
  br i1 %.not18, label %24, label %25

24:                                               ; preds = %21
  tail call void @free(ptr noundef nonnull %20) #19
  br label %29

25:                                               ; preds = %21
  store i64 %.014, ptr %20, align 8, !tbaa !11
  %.not19 = icmp eq ptr %1, null
  %26 = getelementptr inbounds nuw i8, ptr %20, i64 16
  br i1 %.not19, label %28, label %27

27:                                               ; preds = %25
  store ptr %1, ptr %26, align 8, !tbaa !12
  br label %29

28:                                               ; preds = %25
  store ptr @_ZN2cv12ppf_match_3d4hashEj, ptr %26, align 8, !tbaa !12
  br label %29

29:                                               ; preds = %27, %28, %19, %24
  %.0 = phi ptr [ null, %24 ], [ null, %19 ], [ %20, %28 ], [ %20, %27 ]
  ret ptr %.0
}